target datalayout = "e-m:e-p270:32:32-p271:32:32-p272:64:64-i64:64-i128:128-f80:128-n8:16:32:64-S128"
target triple = "x86_64-pc-linux-gnu"

%"class.clang::QualType" = type { %"class.llvm::PointerIntPair" }
%"class.llvm::PointerIntPair" = type { %"struct.llvm::detail::PunnedPointer" }
%"struct.llvm::detail::PunnedPointer" = type { [8 x i8] }
%"class.(anonymous namespace)::CXXNameMangler" = type { ptr, ptr, i8, i8, i8, ptr, i32, i32, i32, %"class.(anonymous namespace)::CXXNameMangler::FunctionTypeDepthState", ptr, %"class.(anonymous namespace)::CXXNameMangler::AbiTagState", %"class.llvm::DenseMap.513", %"class.llvm::DenseMap.516" }
%"class.(anonymous namespace)::CXXNameMangler::FunctionTypeDepthState" = type { i32 }
%"class.(anonymous namespace)::CXXNameMangler::AbiTagState" = type { %"class.llvm::SmallVector.508", %"class.llvm::SmallVector.508", ptr, ptr }
%"class.llvm::SmallVector.508" = type { %"class.llvm::SmallVectorImpl.509", %"struct.llvm::SmallVectorStorage.512" }
%"class.llvm::SmallVectorImpl.509" = type { %"class.llvm::SmallVectorTemplateBase.510" }
%"class.llvm::SmallVectorTemplateBase.510" = type { %"class.llvm::SmallVectorTemplateCommon.511" }
%"class.llvm::SmallVectorTemplateCommon.511" = type { %"class.llvm::SmallVectorBase" }
%"class.llvm::SmallVectorBase" = type { ptr, i32, i32 }
%"struct.llvm::SmallVectorStorage.512" = type { [64 x i8] }
%"class.llvm::DenseMap.513" = type <{ ptr, i32, i32, i32, [4 x i8] }>
%"class.llvm::DenseMap.516" = type <{ ptr, i32, i32, i32, [4 x i8] }>
%"class.llvm::raw_ostream" = type { ptr, i32, ptr, ptr, ptr, i8, i32 }
%"class.clang::ExtQualsTypeCommonBase" = type { ptr, %"class.clang::QualType" }
%"class.clang::FunctionType" = type { %"class.clang::Type.base", %"class.clang::QualType" }
%"class.clang::Type.base" = type { %"class.clang::ExtQualsTypeCommonBase", %union.anon.538 }
%union.anon.538 = type { %"class.clang::Type::FunctionTypeBitfields" }
%"class.clang::Type::FunctionTypeBitfields" = type { i64 }

; Function Attrs: mustprogress nounwind uwtable
define internal void @_ZN12_GLOBAL__N_114CXXNameMangler22FunctionTypeDepthState3popES1_(ptr noundef nonnull align 4 dereferenceable(4) %0, i32 %1) #0 align 2 {
  %3 = alloca %"class.(anonymous namespace)::CXXNameMangler::FunctionTypeDepthState", align 4
  %4 = alloca ptr, align 8
  %5 = getelementptr inbounds nuw %"class.(anonymous namespace)::CXXNameMangler::FunctionTypeDepthState", ptr %3, i32 0, i32 0
  store i32 %1, ptr %5, align 4
  store ptr %0, ptr %4, align 8
  %6 = load ptr, ptr %4, align 8
  %7 = getelementptr inbounds nuw %"class.(anonymous namespace)::CXXNameMangler::FunctionTypeDepthState", ptr %3, i32 0, i32 0
  %8 = load i32, ptr %7, align 4
  %9 = getelementptr inbounds nuw %"class.(anonymous namespace)::CXXNameMangler::FunctionTypeDepthState", ptr %6, i32 0, i32 0
  store i32 %8, ptr %9, align 4
  ret void
}

; Function Attrs: mustprogress nounwind uwtable
define internal void @_ZN12_GLOBAL__N_114CXXNameMangler22FunctionTypeDepthState15leaveResultTypeEv(ptr noundef nonnull align 4 dereferenceable(4) %0) #0 align 2 {
  %2 = alloca ptr, align 8
  store ptr %0, ptr %2, align 8
  %3 = load ptr, ptr %2, align 8
  %4 = getelementptr inbounds nuw %"class.(anonymous namespace)::CXXNameMangler::FunctionTypeDepthState", ptr %3, i32 0, i32 0
  %5 = load i32, ptr %4, align 4
  %6 = and i32 %5, -2
  store i32 %6, ptr %4, align 4
  ret void
}

; Function Attrs: mustprogress nounwind uwtable
define linkonce_odr hidden i64 @_ZNK5clang12FunctionType13getReturnTypeEv(ptr noundef nonnull align 16 dereferenceable(32) %0) #0 comdat align 2 {
  %2 = alloca %"class.clang::QualType", align 8
  %3 = alloca ptr, align 8
  store ptr %0, ptr %3, align 8
  %4 = load ptr, ptr %3, align 8
  %5 = getelementptr inbounds nuw %"class.clang::FunctionType", ptr %4, i32 0, i32 1
  call void @llvm.memcpy.p0.p0.i64(ptr align 8 %2, ptr align 8 %5, i64 8, i1 false)
  %6 = getelementptr inbounds nuw %"class.clang::QualType", ptr %2, i32 0, i32 0
  %7 = getelementptr inbounds nuw %"class.llvm::PointerIntPair", ptr %6, i32 0, i32 0
  %8 = getelementptr inbounds nuw %"struct.llvm::detail::PunnedPointer", ptr %7, i32 0, i32 0
  %9 = load i64, ptr %8, align 8
  ret i64 %9
}

; Function Attrs: mustprogress nounwind uwtable
define internal void @_ZN12_GLOBAL__N_114CXXNameMangler22FunctionTypeDepthState15enterResultTypeEv(ptr noundef nonnull align 4 dereferenceable(4) %0) #0 align 2 {
  %2 = alloca ptr, align 8
  store ptr %0, ptr %2, align 8
  %3 = load ptr, ptr %2, align 8
  %4 = getelementptr inbounds nuw %"class.(anonymous namespace)::CXXNameMangler::FunctionTypeDepthState", ptr %3, i32 0, i32 0
  %5 = load i32, ptr %4, align 4
  %6 = or i32 %5, 1
  store i32 %6, ptr %4, align 4
  ret void
}

; Function Attrs: mustprogress nounwind uwtable
define internal i32 @_ZN12_GLOBAL__N_114CXXNameMangler22FunctionTypeDepthState4pushEv(ptr noundef nonnull align 4 dereferenceable(4) %0) #0 align 2 {
  %2 = alloca %"class.(anonymous namespace)::CXXNameMangler::FunctionTypeDepthState", align 4
  %3 = alloca ptr, align 8
  store ptr %0, ptr %3, align 8
  %4 = load ptr, ptr %3, align 8
  call void @llvm.memcpy.p0.p0.i64(ptr align 4 %2, ptr align 4 %4, i64 4, i1 false)
  %5 = getelementptr inbounds nuw %"class.(anonymous namespace)::CXXNameMangler::FunctionTypeDepthState", ptr %4, i32 0, i32 0
  %6 = load i32, ptr %5, align 4
  %7 = and i32 %6, -2
  %8 = add i32 %7, 2
  %9 = getelementptr inbounds nuw %"class.(anonymous namespace)::CXXNameMangler::FunctionTypeDepthState", ptr %4, i32 0, i32 0
  store i32 %8, ptr %9, align 4
  %10 = getelementptr inbounds nuw %"class.(anonymous namespace)::CXXNameMangler::FunctionTypeDepthState", ptr %2, i32 0, i32 0
  %11 = load i32, ptr %10, align 4
  ret i32 %11
}

; Function Attrs: mustprogress nounwind uwtable
define linkonce_odr hidden noundef nonnull align 8 dereferenceable(48) ptr @_ZN4llvm11raw_ostreamlsEc(ptr noundef nonnull align 8 dereferenceable(48) %0, i8 noundef signext %1) #0 comdat align 2 {
  %3 = alloca ptr, align 8
  %4 = alloca ptr, align 8
  %5 = alloca i8, align 1
  store ptr %0, ptr %4, align 8
  store i8 %1, ptr %5, align 1
  %6 = load ptr, ptr %4, align 8
  %7 = getelementptr inbounds nuw %"class.llvm::raw_ostream", ptr %6, i32 0, i32 4
  %8 = load ptr, ptr %7, align 8
  %9 = getelementptr inbounds nuw %"class.llvm::raw_ostream", ptr %6, i32 0, i32 3
  %10 = load ptr, ptr %9, align 8
  %11 = icmp uge ptr %8, %10
  br i1 %11, label %12, label %15

12:                                               ; preds = %2
  %13 = load i8, ptr %5, align 1
  %14 = call noundef nonnull align 8 dereferenceable(48) ptr @_ZN4llvm11raw_ostream5writeEh(ptr noundef nonnull align 8 dereferenceable(48) %6, i8 noundef zeroext %13)
  store ptr %14, ptr %3, align 8
  br label %20

15:                                               ; preds = %2
  %16 = load i8, ptr %5, align 1
  %17 = getelementptr inbounds nuw %"class.llvm::raw_ostream", ptr %6, i32 0, i32 4
  %18 = load ptr, ptr %17, align 8
  %19 = getelementptr inbounds i8, ptr %18, i32 1
  store ptr %19, ptr %17, align 8
  store i8 %16, ptr %18, align 1
  store ptr %6, ptr %3, align 8
  br label %20

20:                                               ; preds = %15, %12
  %21 = load ptr, ptr %3, align 8
  ret ptr %21
}

; Function Attrs: mustprogress nounwind uwtable
define internal void @_ZN12_GLOBAL__N_114CXXNameMangler10mangleTypeEPKN5clang19FunctionNoProtoTypeE(ptr noundef nonnull align 8 dereferenceable(280) %0, ptr noundef %1) #0 align 2 {
  %3 = alloca ptr, align 8
  %4 = alloca ptr, align 8
  %5 = alloca %"class.(anonymous namespace)::CXXNameMangler::FunctionTypeDepthState", align 4
  %6 = alloca %"class.clang::QualType", align 8
  %7 = alloca %"class.(anonymous namespace)::CXXNameMangler::FunctionTypeDepthState", align 4
  store ptr %0, ptr %3, align 8
  store ptr %1, ptr %4, align 8
  %8 = load ptr, ptr %3, align 8
  %9 = getelementptr inbounds nuw %"class.(anonymous namespace)::CXXNameMangler", ptr %8, i32 0, i32 1
  %10 = load ptr, ptr %9, align 8
  %11 = call noundef nonnull align 8 dereferenceable(48) ptr @_ZN4llvm11raw_ostreamlsEc(ptr noundef nonnull align 8 dereferenceable(48) %10, i8 noundef signext 70)
  %12 = getelementptr inbounds nuw %"class.(anonymous namespace)::CXXNameMangler", ptr %8, i32 0, i32 9
  %13 = call i32 @_ZN12_GLOBAL__N_114CXXNameMangler22FunctionTypeDepthState4pushEv(ptr noundef nonnull align 4 dereferenceable(4) %12)
  %14 = getelementptr inbounds nuw %"class.(anonymous namespace)::CXXNameMangler::FunctionTypeDepthState", ptr %5, i32 0, i32 0
  store i32 %13, ptr %14, align 4
  %15 = getelementptr inbounds nuw %"class.(anonymous namespace)::CXXNameMangler", ptr %8, i32 0, i32 9
  call void @_ZN12_GLOBAL__N_114CXXNameMangler22FunctionTypeDepthState15enterResultTypeEv(ptr noundef nonnull align 4 dereferenceable(4) %15)
  %16 = load ptr, ptr %4, align 8
  %17 = call i64 @_ZNK5clang12FunctionType13getReturnTypeEv(ptr noundef nonnull align 16 dereferenceable(32) %16)
  %18 = getelementptr inbounds nuw %"class.clang::QualType", ptr %6, i32 0, i32 0
  %19 = getelementptr inbounds nuw %"class.llvm::PointerIntPair", ptr %18, i32 0, i32 0
  %20 = getelementptr inbounds nuw %"struct.llvm::detail::PunnedPointer", ptr %19, i32 0, i32 0
  store i64 %17, ptr %20, align 8
  %21 = getelementptr inbounds nuw %"class.clang::QualType", ptr %6, i32 0, i32 0
  %22 = getelementptr inbounds nuw %"class.llvm::PointerIntPair", ptr %21, i32 0, i32 0
  %23 = getelementptr inbounds nuw %"struct.llvm::detail::PunnedPointer", ptr %22, i32 0, i32 0
  %24 = load i64, ptr %23, align 8
  call void @_ZN12_GLOBAL__N_114CXXNameMangler10mangleTypeEN5clang8QualTypeE(ptr noundef nonnull align 8 dereferenceable(280) %8, i64 %24)
  %25 = getelementptr inbounds nuw %"class.(anonymous namespace)::CXXNameMangler", ptr %8, i32 0, i32 9
  call void @_ZN12_GLOBAL__N_114CXXNameMangler22FunctionTypeDepthState15leaveResultTypeEv(ptr noundef nonnull align 4 dereferenceable(4) %25)
  %26 = getelementptr inbounds nuw %"class.(anonymous namespace)::CXXNameMangler", ptr %8, i32 0, i32 9
  call void @llvm.memcpy.p0.p0.i64(ptr align 4 %7, ptr align 4 %5, i64 4, i1 false)
  %27 = getelementptr inbounds nuw %"class.(anonymous namespace)::CXXNameMangler::FunctionTypeDepthState", ptr %7, i32 0, i32 0
  %28 = load i32, ptr %27, align 4
  call void @_ZN12_GLOBAL__N_114CXXNameMangler22FunctionTypeDepthState3popES1_(ptr noundef nonnull align 4 dereferenceable(4) %26, i32 %28)
  %29 = getelementptr inbounds nuw %"class.(anonymous namespace)::CXXNameMangler", ptr %8, i32 0, i32 1
  %30 = load ptr, ptr %29, align 8
  %31 = call noundef nonnull align 8 dereferenceable(48) ptr @_ZN4llvm11raw_ostreamlsEc(ptr noundef nonnull align 8 dereferenceable(48) %30, i8 noundef signext 69)
  ret void
}