; Function Attrs: mustprogress nounwind uwtable
define internal fastcc void @_ZN12_GLOBAL__N_114CXXNameMangler10mangleTypeEPKN5clang19FunctionNoProtoTypeE(ptr noundef nonnull align 8 dereferenceable(280) %0, ptr nocapture noundef readonly %1) unnamed_addr #0 align 2 {
  %3 = getelementptr inbounds nuw i8, ptr %0, i64 8
  %4 = load ptr, ptr %3, align 8
  %5 = getelementptr inbounds nuw i8, ptr %4, i64 32
  %6 = load ptr, ptr %5, align 8
  %7 = getelementptr inbounds nuw i8, ptr %4, i64 24
  %8 = load ptr, ptr %7, align 8
  %.not.i = icmp ult ptr %6, %8
  br i1 %.not.i, label %11, label %9

9:                                                ; preds = %2
  %10 = tail call noundef nonnull align 8 dereferenceable(48) ptr @_ZN4llvm11raw_ostream5writeEh(ptr noundef nonnull align 8 dereferenceable(48) %4, i8 noundef zeroext 70) #24
  br label %_ZN4llvm11raw_ostreamlsEc.exit

11:                                               ; preds = %2
  %12 = getelementptr inbounds i8, ptr %6, i64 1
  store ptr %12, ptr %5, align 8
  store i8 70, ptr %6, align 1
  br label %_ZN4llvm11raw_ostreamlsEc.exit

_ZN4llvm11raw_ostreamlsEc.exit:                   ; preds = %9, %11
  %13 = getelementptr inbounds nuw i8, ptr %0, i64 44
  %.sroa.0.0.copyload.i = load i32, ptr %13, align 4
  %14 = or i32 %.sroa.0.0.copyload.i, 1
  %15 = add i32 %14, 2
  store i32 %15, ptr %13, align 4
  %16 = getelementptr inbounds nuw i8, ptr %1, i64 24
  %.sroa.0.0.copyload.i4 = load i64, ptr %16, align 8
  tail call fastcc void @_ZN12_GLOBAL__N_114CXXNameMangler10mangleTypeEN5clang8QualTypeE(ptr noundef nonnull align 8 dereferenceable(280) %0, i64 %.sroa.0.0.copyload.i4)
  store i32 %.sroa.0.0.copyload.i, ptr %13, align 4
  %17 = load ptr, ptr %3, align 8
  %18 = getelementptr inbounds nuw i8, ptr %17, i64 32
  %19 = load ptr, ptr %18, align 8
  %20 = getelementptr inbounds nuw i8, ptr %17, i64 24
  %21 = load ptr, ptr %20, align 8
  %.not.i5 = icmp ult ptr %19, %21
  br i1 %.not.i5, label %24, label %22

22:                                               ; preds = %_ZN4llvm11raw_ostreamlsEc.exit
  %23 = tail call noundef nonnull align 8 dereferenceable(48) ptr @_ZN4llvm11raw_ostream5writeEh(ptr noundef nonnull align 8 dereferenceable(48) %17, i8 noundef zeroext 69) #24
  br label %_ZN4llvm11raw_ostreamlsEc.exit7

24:                                               ; preds = %_ZN4llvm11raw_ostreamlsEc.exit
  %25 = getelementptr inbounds i8, ptr %19, i64 1
  store ptr %25, ptr %18, align 8
  store i8 69, ptr %19, align 1
  br label %_ZN4llvm11raw_ostreamlsEc.exit7

_ZN4llvm11raw_ostreamlsEc.exit7:                  ; preds = %22, %24
  ret void
}